target datalayout = "e-m:e-p270:32:32-p271:32:32-p272:64:64-i64:64-i128:128-f80:128-n8:16:32:64-S128"
target triple = "x86_64-pc-linux-gnu"

%"struct.Luau::Lexeme" = type { i32, %"struct.Luau::Location", i32, %union.anon }
%"struct.Luau::Location" = type { %"struct.Luau::Position", %"struct.Luau::Position" }
%"struct.Luau::Position" = type { i32, i32 }
%union.anon = type { ptr }

; Function Attrs: mustprogress nounwind uwtable
define dso_local noundef i32 @_ZNK4Luau6Lexeme13getBlockDepthEv(ptr noundef nonnull align 8 dereferenceable(32) %0) #2 align 2 {
  %2 = alloca ptr, align 8
  %3 = alloca i32, align 4
  store ptr %0, ptr %2, align 8, !tbaa !22
  %4 = load ptr, ptr %2, align 8
  call void @llvm.lifetime.start.p0(i64 4, ptr %3) #18
  store i32 0, ptr %3, align 4, !tbaa !4
  br label %5

5:                                                ; preds = %8, %1
  %6 = load i32, ptr %3, align 4, !tbaa !4
  %7 = add i32 %6, 1
  store i32 %7, ptr %3, align 4, !tbaa !4
  br label %8

8:                                                ; preds = %5
  %9 = getelementptr inbounds nuw %"struct.Luau::Lexeme", ptr %4, i32 0, i32 3
  %10 = load ptr, ptr %9, align 8, !tbaa !34
  %11 = getelementptr inbounds nuw %"struct.Luau::Lexeme", ptr %4, i32 0, i32 2
  %12 = load i32, ptr %11, align 4, !tbaa !33
  %13 = zext i32 %12 to i64
  %14 = getelementptr inbounds nuw i8, ptr %10, i64 %13
  %15 = load i32, ptr %3, align 4, !tbaa !4
  %16 = zext i32 %15 to i64
  %17 = getelementptr inbounds nuw i8, ptr %14, i64 %16
  %18 = load i8, ptr %17, align 1, !tbaa !34
  %19 = sext i8 %18 to i32
  %20 = icmp ne i32 %19, 93
  br i1 %20, label %5, label %21, !llvm.loop !70

21:                                               ; preds = %8
  %22 = load i32, ptr %3, align 4, !tbaa !4
  %23 = sub i32 %22, 1
  call void @llvm.lifetime.end.p0(i64 4, ptr %3) #18
  ret i32 %23
}