; Function Attrs: mustprogress nofree norecurse nosync nounwind willreturn memory(read, inaccessiblemem: none) uwtable
define dso_local noundef i32 @_ZNK4Luau6Lexeme13getBlockDepthEv(ptr noundef nonnull readonly align 8 captures(none) dereferenceable(32) %0) local_unnamed_addr #8 align 2 {
  %2 = getelementptr inbounds nuw i8, ptr %0, i64 24
  %3 = load ptr, ptr %2, align 8, !tbaa !15
  %4 = getelementptr inbounds nuw i8, ptr %0, i64 20
  %5 = load i32, ptr %4, align 4, !tbaa !14
  %6 = zext i32 %5 to i64
  %7 = getelementptr inbounds nuw i8, ptr %3, i64 %6
  br label %8

8:                                                ; preds = %8, %1
  %.0 = phi i32 [ 0, %1 ], [ %9, %8 ]
  %9 = add i32 %.0, 1
  %10 = zext i32 %9 to i64
  %11 = getelementptr inbounds nuw i8, ptr %7, i64 %10
  %12 = load i8, ptr %11, align 1, !tbaa !15
  %.not = icmp eq i8 %12, 93
  br i1 %.not, label %13, label %8, !llvm.loop !50

13:                                               ; preds = %8
  ret i32 %.0
}